target datalayout = "e-m:e-p270:32:32-p271:32:32-p272:64:64-i64:64-i128:128-f80:128-n8:16:32:64-S128"
target triple = "x86_64-pc-linux-gnu"

@_ZN6icu_77L17CLDR_FIELD_APPENDE = internal constant [16 x ptr] [ptr @.str.16, ptr @.str.17, ptr @.str.18, ptr @.str.19, ptr @.str.20, ptr @.str.21, ptr @.str.22, ptr @.str.21, ptr @.str.21, ptr @.str.23, ptr @.str.21, ptr @.str.24, ptr @.str.25, ptr @.str.26, ptr @.str.21, ptr @.str.27], align 16

; Function Attrs: mustprogress nounwind uwtable
define noundef i32 @_ZNK6icu_7724DateTimePatternGenerator21getAppendFormatNumberEPKc(ptr noundef nonnull align 8 dereferenceable(4796) %0, ptr noundef %1) #0 align 2 {
  %3 = alloca i32, align 4
  %4 = alloca ptr, align 8
  %5 = alloca ptr, align 8
  %6 = alloca i32, align 4
  %7 = alloca i32, align 4
  store ptr %0, ptr %4, align 8, !tbaa !23
  store ptr %1, ptr %5, align 8, !tbaa !17
  call void @llvm.lifetime.start.p0(i64 4, ptr %6) #13
  store i32 0, ptr %6, align 4, !tbaa !14
  br label %8

8:                                                ; preds = %23, %2
  %9 = load i32, ptr %6, align 4, !tbaa !14
  %10 = icmp slt i32 %9, 16
  br i1 %10, label %12, label %11

11:                                               ; preds = %8
  store i32 2, ptr %7, align 4
  br label %26

12:                                               ; preds = %8
  %13 = load i32, ptr %6, align 4, !tbaa !14
  %14 = sext i32 %13 to i64
  %15 = getelementptr inbounds [16 x ptr], ptr @_ZN6icu_77L17CLDR_FIELD_APPENDE, i64 0, i64 %14
  %16 = load ptr, ptr %15, align 8, !tbaa !17
  %17 = load ptr, ptr %5, align 8, !tbaa !17
  %18 = call i32 @strcmp(ptr noundef %16, ptr noundef %17) #18
  %19 = icmp eq i32 %18, 0
  br i1 %19, label %20, label %22

20:                                               ; preds = %12
  %21 = load i32, ptr %6, align 4, !tbaa !14
  store i32 %21, ptr %3, align 4
  store i32 1, ptr %7, align 4
  br label %26

22:                                               ; preds = %12
  br label %23

23:                                               ; preds = %22
  %24 = load i32, ptr %6, align 4, !tbaa !14
  %25 = add nsw i32 %24, 1
  store i32 %25, ptr %6, align 4, !tbaa !14
  br label %8, !llvm.loop !226

26:                                               ; preds = %20, %11
  call void @llvm.lifetime.end.p0(i64 4, ptr %6) #13
  %27 = load i32, ptr %7, align 4
  switch i32 %27, label %31 [
    i32 2, label %28
    i32 1, label %29
  ]

28:                                               ; preds = %26
  store i32 16, ptr %3, align 4
  br label %29

29:                                               ; preds = %28, %26
  %30 = load i32, ptr %3, align 4
  ret i32 %30

31:                                               ; preds = %26
  unreachable
}