; Function Attrs: mustprogress nofree nounwind willreturn memory(read, inaccessiblemem: none) uwtable
define noundef i32 @_ZNK6icu_7724DateTimePatternGenerator21getAppendFormatNumberEPKc(ptr noundef nonnull readnone align 8 captures(none) dereferenceable(4796) %0, ptr noundef readonly captures(none) %1) local_unnamed_addr #21 align 2 {
  br label %3

3:                                                ; preds = %2, %8
  %indvars.iv = phi i64 [ 0, %2 ], [ %indvars.iv.next, %8 ]
  %4 = getelementptr inbounds nuw [16 x ptr], ptr @_ZN6icu_77L17CLDR_FIELD_APPENDE, i64 0, i64 %indvars.iv
  %5 = load ptr, ptr %4, align 8, !tbaa !164
  %6 = tail call i32 @strcmp(ptr noundef nonnull dereferenceable(1) %5, ptr noundef nonnull dereferenceable(1) %1) #38
  %7 = icmp eq i32 %6, 0
  br i1 %7, label %.split.loop.exit, label %8

8:                                                ; preds = %3
  %indvars.iv.next = add nuw nsw i64 %indvars.iv, 1
  %exitcond = icmp eq i64 %indvars.iv.next, 16
  br i1 %exitcond, label %.split.loop.exit10, label %3, !llvm.loop !165

.split.loop.exit:                                 ; preds = %3
  %9 = trunc nuw nsw i64 %indvars.iv to i32
  br label %.split.loop.exit10

.split.loop.exit10:                               ; preds = %8, %.split.loop.exit
  %spec.select = phi i32 [ %9, %.split.loop.exit ], [ 16, %8 ]
  ret i32 %spec.select
}